target datalayout = "e-m:e-p270:32:32-p271:32:32-p272:64:64-i64:64-i128:128-f80:128-n8:16:32:64-S128"
target triple = "x86_64-pc-linux-gnu"

%struct.RawSeqStore_t = type { ptr, i64, i64, i64, i64 }
%struct.ZSTD_optLdm_t = type { %struct.RawSeqStore_t, i32, i32, i32 }
%struct.ZSTD_match_t = type { i32, i32 }
%struct.rawSeq = type { i32, i32, i32 }

; Function Attrs: nounwind uwtable
define internal void @ZSTD_optLdm_maybeAddMatch(ptr noundef %0, ptr noundef %1, ptr noundef %2, i32 noundef %3, i32 noundef %4) #0 {
  %6 = alloca ptr, align 8
  %7 = alloca ptr, align 8
  %8 = alloca ptr, align 8
  %9 = alloca i32, align 4
  %10 = alloca i32, align 4
  %11 = alloca i32, align 4
  %12 = alloca i32, align 4
  %13 = alloca i32, align 4
  %14 = alloca i32, align 4
  store ptr %0, ptr %6, align 8, !tbaa !23
  store ptr %1, ptr %7, align 8, !tbaa !24
  store ptr %2, ptr %8, align 8, !tbaa !23
  store i32 %3, ptr %9, align 4, !tbaa !18
  store i32 %4, ptr %10, align 4, !tbaa !18
  call void @llvm.lifetime.start.p0(i64 4, ptr %11) #11
  %15 = load i32, ptr %9, align 4, !tbaa !18
  %16 = load ptr, ptr %8, align 8, !tbaa !23
  %17 = getelementptr inbounds nuw %struct.ZSTD_optLdm_t, ptr %16, i32 0, i32 1
  %18 = load i32, ptr %17, align 8, !tbaa !55
  %19 = sub i32 %15, %18
  store i32 %19, ptr %11, align 4, !tbaa !18
  call void @llvm.lifetime.start.p0(i64 4, ptr %12) #11
  %20 = load ptr, ptr %8, align 8, !tbaa !23
  %21 = getelementptr inbounds nuw %struct.ZSTD_optLdm_t, ptr %20, i32 0, i32 2
  %22 = load i32, ptr %21, align 4, !tbaa !56
  %23 = load ptr, ptr %8, align 8, !tbaa !23
  %24 = getelementptr inbounds nuw %struct.ZSTD_optLdm_t, ptr %23, i32 0, i32 1
  %25 = load i32, ptr %24, align 8, !tbaa !55
  %26 = sub i32 %22, %25
  %27 = load i32, ptr %11, align 4, !tbaa !18
  %28 = sub i32 %26, %27
  store i32 %28, ptr %12, align 4, !tbaa !18
  %29 = load i32, ptr %9, align 4, !tbaa !18
  %30 = load ptr, ptr %8, align 8, !tbaa !23
  %31 = getelementptr inbounds nuw %struct.ZSTD_optLdm_t, ptr %30, i32 0, i32 1
  %32 = load i32, ptr %31, align 8, !tbaa !55
  %33 = icmp ult i32 %29, %32
  br i1 %33, label %44, label %34

34:                                               ; preds = %5
  %35 = load i32, ptr %9, align 4, !tbaa !18
  %36 = load ptr, ptr %8, align 8, !tbaa !23
  %37 = getelementptr inbounds nuw %struct.ZSTD_optLdm_t, ptr %36, i32 0, i32 2
  %38 = load i32, ptr %37, align 4, !tbaa !56
  %39 = icmp uge i32 %35, %38
  br i1 %39, label %44, label %40

40:                                               ; preds = %34
  %41 = load i32, ptr %12, align 4, !tbaa !18
  %42 = load i32, ptr %10, align 4, !tbaa !18
  %43 = icmp ult i32 %41, %42
  br i1 %43, label %44, label %45

44:                                               ; preds = %40, %34, %5
  store i32 1, ptr %13, align 4
  br label %90

45:                                               ; preds = %40
  %46 = load ptr, ptr %7, align 8, !tbaa !24
  %47 = load i32, ptr %46, align 4, !tbaa !18
  %48 = icmp eq i32 %47, 0
  br i1 %48, label %64, label %49

49:                                               ; preds = %45
  %50 = load i32, ptr %12, align 4, !tbaa !18
  %51 = load ptr, ptr %6, align 8, !tbaa !23
  %52 = load ptr, ptr %7, align 8, !tbaa !24
  %53 = load i32, ptr %52, align 4, !tbaa !18
  %54 = sub i32 %53, 1
  %55 = zext i32 %54 to i64
  %56 = getelementptr inbounds nuw %struct.ZSTD_match_t, ptr %51, i64 %55
  %57 = getelementptr inbounds nuw %struct.ZSTD_match_t, ptr %56, i32 0, i32 1
  %58 = load i32, ptr %57, align 4, !tbaa !62
  %59 = icmp ugt i32 %50, %58
  br i1 %59, label %60, label %89

60:                                               ; preds = %49
  %61 = load ptr, ptr %7, align 8, !tbaa !24
  %62 = load i32, ptr %61, align 4, !tbaa !18
  %63 = icmp ult i32 %62, 4096
  br i1 %63, label %64, label %89

64:                                               ; preds = %60, %45
  call void @llvm.lifetime.start.p0(i64 4, ptr %14) #11
  %65 = load ptr, ptr %8, align 8, !tbaa !23
  %66 = getelementptr inbounds nuw %struct.ZSTD_optLdm_t, ptr %65, i32 0, i32 3
  %67 = load i32, ptr %66, align 8, !tbaa !52
  %68 = add i32 %67, 3
  store i32 %68, ptr %14, align 4, !tbaa !18
  br label %69

69:                                               ; preds = %64
  br label %70

70:                                               ; preds = %69
  br label %71

71:                                               ; preds = %70
  %72 = load i32, ptr %12, align 4, !tbaa !18
  %73 = load ptr, ptr %6, align 8, !tbaa !23
  %74 = load ptr, ptr %7, align 8, !tbaa !24
  %75 = load i32, ptr %74, align 4, !tbaa !18
  %76 = zext i32 %75 to i64
  %77 = getelementptr inbounds nuw %struct.ZSTD_match_t, ptr %73, i64 %76
  %78 = getelementptr inbounds nuw %struct.ZSTD_match_t, ptr %77, i32 0, i32 1
  store i32 %72, ptr %78, align 4, !tbaa !62
  %79 = load i32, ptr %14, align 4, !tbaa !18
  %80 = load ptr, ptr %6, align 8, !tbaa !23
  %81 = load ptr, ptr %7, align 8, !tbaa !24
  %82 = load i32, ptr %81, align 4, !tbaa !18
  %83 = zext i32 %82 to i64
  %84 = getelementptr inbounds nuw %struct.ZSTD_match_t, ptr %80, i64 %83
  %85 = getelementptr inbounds nuw %struct.ZSTD_match_t, ptr %84, i32 0, i32 0
  store i32 %79, ptr %85, align 4, !tbaa !64
  %86 = load ptr, ptr %7, align 8, !tbaa !24
  %87 = load i32, ptr %86, align 4, !tbaa !18
  %88 = add i32 %87, 1
  store i32 %88, ptr %86, align 4, !tbaa !18
  call void @llvm.lifetime.end.p0(i64 4, ptr %14) #11
  br label %89

89:                                               ; preds = %71, %60, %49
  store i32 0, ptr %13, align 4
  br label %90

90:                                               ; preds = %89, %44
  call void @llvm.lifetime.end.p0(i64 4, ptr %12) #11
  call void @llvm.lifetime.end.p0(i64 4, ptr %11) #11
  %91 = load i32, ptr %13, align 4
  switch i32 %91, label %93 [
    i32 0, label %92
    i32 1, label %92
  ]

92:                                               ; preds = %90, %90
  ret void

93:                                               ; preds = %90
  unreachable
}

; Function Attrs: nounwind uwtable
define internal void @ZSTD_optLdm_skipRawSeqStoreBytes(ptr noundef %0, i64 noundef %1) #0 {
  %3 = alloca ptr, align 8
  %4 = alloca i64, align 8
  %5 = alloca i32, align 4
  %6 = alloca %struct.rawSeq, align 4
  %7 = alloca i32, align 4
  store ptr %0, ptr %3, align 8, !tbaa !23
  store i64 %1, ptr %4, align 8, !tbaa !25
  call void @llvm.lifetime.start.p0(i64 4, ptr %5) #11
  %8 = load ptr, ptr %3, align 8, !tbaa !23
  %9 = getelementptr inbounds nuw %struct.RawSeqStore_t, ptr %8, i32 0, i32 2
  %10 = load i64, ptr %9, align 8, !tbaa !120
  %11 = load i64, ptr %4, align 8, !tbaa !25
  %12 = add i64 %10, %11
  %13 = trunc i64 %12 to i32
  store i32 %13, ptr %5, align 4, !tbaa !18
  br label %14

14:                                               ; preds = %62, %2
  %15 = load i32, ptr %5, align 4, !tbaa !18
  %16 = icmp ne i32 %15, 0
  br i1 %16, label %17, label %25

17:                                               ; preds = %14
  %18 = load ptr, ptr %3, align 8, !tbaa !23
  %19 = getelementptr inbounds nuw %struct.RawSeqStore_t, ptr %18, i32 0, i32 1
  %20 = load i64, ptr %19, align 8, !tbaa !121
  %21 = load ptr, ptr %3, align 8, !tbaa !23
  %22 = getelementptr inbounds nuw %struct.RawSeqStore_t, ptr %21, i32 0, i32 3
  %23 = load i64, ptr %22, align 8, !tbaa !122
  %24 = icmp ult i64 %20, %23
  br label %25

25:                                               ; preds = %17, %14
  %26 = phi i1 [ false, %14 ], [ %24, %17 ]
  br i1 %26, label %27, label %63

27:                                               ; preds = %25
  call void @llvm.lifetime.start.p0(i64 12, ptr %6) #11
  %28 = load ptr, ptr %3, align 8, !tbaa !23
  %29 = getelementptr inbounds nuw %struct.RawSeqStore_t, ptr %28, i32 0, i32 0
  %30 = load ptr, ptr %29, align 8, !tbaa !123
  %31 = load ptr, ptr %3, align 8, !tbaa !23
  %32 = getelementptr inbounds nuw %struct.RawSeqStore_t, ptr %31, i32 0, i32 1
  %33 = load i64, ptr %32, align 8, !tbaa !121
  %34 = getelementptr inbounds nuw %struct.rawSeq, ptr %30, i64 %33
  call void @llvm.memcpy.p0.p0.i64(ptr align 4 %6, ptr align 4 %34, i64 12, i1 false), !tbaa.struct !78
  %35 = load i32, ptr %5, align 4, !tbaa !18
  %36 = getelementptr inbounds nuw %struct.rawSeq, ptr %6, i32 0, i32 1
  %37 = load i32, ptr %36, align 4, !tbaa !80
  %38 = getelementptr inbounds nuw %struct.rawSeq, ptr %6, i32 0, i32 2
  %39 = load i32, ptr %38, align 4, !tbaa !82
  %40 = add i32 %37, %39
  %41 = icmp uge i32 %35, %40
  br i1 %41, label %42, label %54

42:                                               ; preds = %27
  %43 = getelementptr inbounds nuw %struct.rawSeq, ptr %6, i32 0, i32 1
  %44 = load i32, ptr %43, align 4, !tbaa !80
  %45 = getelementptr inbounds nuw %struct.rawSeq, ptr %6, i32 0, i32 2
  %46 = load i32, ptr %45, align 4, !tbaa !82
  %47 = add i32 %44, %46
  %48 = load i32, ptr %5, align 4, !tbaa !18
  %49 = sub i32 %48, %47
  store i32 %49, ptr %5, align 4, !tbaa !18
  %50 = load ptr, ptr %3, align 8, !tbaa !23
  %51 = getelementptr inbounds nuw %struct.RawSeqStore_t, ptr %50, i32 0, i32 1
  %52 = load i64, ptr %51, align 8, !tbaa !121
  %53 = add i64 %52, 1
  store i64 %53, ptr %51, align 8, !tbaa !121
  br label %59

54:                                               ; preds = %27
  %55 = load i32, ptr %5, align 4, !tbaa !18
  %56 = zext i32 %55 to i64
  %57 = load ptr, ptr %3, align 8, !tbaa !23
  %58 = getelementptr inbounds nuw %struct.RawSeqStore_t, ptr %57, i32 0, i32 2
  store i64 %56, ptr %58, align 8, !tbaa !120
  store i32 3, ptr %7, align 4
  br label %60

59:                                               ; preds = %42
  store i32 0, ptr %7, align 4
  br label %60

60:                                               ; preds = %59, %54
  call void @llvm.lifetime.end.p0(i64 12, ptr %6) #11
  %61 = load i32, ptr %7, align 4
  switch i32 %61, label %78 [
    i32 0, label %62
    i32 3, label %63
  ]

62:                                               ; preds = %60
  br label %14, !llvm.loop !124

63:                                               ; preds = %60, %25
  %64 = load i32, ptr %5, align 4, !tbaa !18
  %65 = icmp eq i32 %64, 0
  br i1 %65, label %74, label %66

66:                                               ; preds = %63
  %67 = load ptr, ptr %3, align 8, !tbaa !23
  %68 = getelementptr inbounds nuw %struct.RawSeqStore_t, ptr %67, i32 0, i32 1
  %69 = load i64, ptr %68, align 8, !tbaa !121
  %70 = load ptr, ptr %3, align 8, !tbaa !23
  %71 = getelementptr inbounds nuw %struct.RawSeqStore_t, ptr %70, i32 0, i32 3
  %72 = load i64, ptr %71, align 8, !tbaa !122
  %73 = icmp eq i64 %69, %72
  br i1 %73, label %74, label %77

74:                                               ; preds = %66, %63
  %75 = load ptr, ptr %3, align 8, !tbaa !23
  %76 = getelementptr inbounds nuw %struct.RawSeqStore_t, ptr %75, i32 0, i32 2
  store i64 0, ptr %76, align 8, !tbaa !120
  br label %77

77:                                               ; preds = %74, %66
  call void @llvm.lifetime.end.p0(i64 4, ptr %5) #11
  ret void

78:                                               ; preds = %60
  unreachable
}

; Function Attrs: nounwind uwtable
define internal void @ZSTD_optLdm_processMatchCandidate(ptr noundef %0, ptr noundef %1, ptr noundef %2, i32 noundef %3, i32 noundef %4, i32 noundef %5) #0 {
  %7 = alloca ptr, align 8
  %8 = alloca ptr, align 8
  %9 = alloca ptr, align 8
  %10 = alloca i32, align 4
  %11 = alloca i32, align 4
  %12 = alloca i32, align 4
  %13 = alloca i32, align 4
  store ptr %0, ptr %7, align 8, !tbaa !23
  store ptr %1, ptr %8, align 8, !tbaa !23
  store ptr %2, ptr %9, align 8, !tbaa !24
  store i32 %3, ptr %10, align 4, !tbaa !18
  store i32 %4, ptr %11, align 4, !tbaa !18
  store i32 %5, ptr %12, align 4, !tbaa !18
  %14 = load ptr, ptr %7, align 8, !tbaa !23
  %15 = getelementptr inbounds nuw %struct.ZSTD_optLdm_t, ptr %14, i32 0, i32 0
  %16 = getelementptr inbounds nuw %struct.RawSeqStore_t, ptr %15, i32 0, i32 3
  %17 = load i64, ptr %16, align 8, !tbaa !75
  %18 = icmp eq i64 %17, 0
  br i1 %18, label %29, label %19

19:                                               ; preds = %6
  %20 = load ptr, ptr %7, align 8, !tbaa !23
  %21 = getelementptr inbounds nuw %struct.ZSTD_optLdm_t, ptr %20, i32 0, i32 0
  %22 = getelementptr inbounds nuw %struct.RawSeqStore_t, ptr %21, i32 0, i32 1
  %23 = load i64, ptr %22, align 8, !tbaa !76
  %24 = load ptr, ptr %7, align 8, !tbaa !23
  %25 = getelementptr inbounds nuw %struct.ZSTD_optLdm_t, ptr %24, i32 0, i32 0
  %26 = getelementptr inbounds nuw %struct.RawSeqStore_t, ptr %25, i32 0, i32 3
  %27 = load i64, ptr %26, align 8, !tbaa !75
  %28 = icmp uge i64 %23, %27
  br i1 %28, label %29, label %30

29:                                               ; preds = %19, %6
  br label %62

30:                                               ; preds = %19
  %31 = load i32, ptr %10, align 4, !tbaa !18
  %32 = load ptr, ptr %7, align 8, !tbaa !23
  %33 = getelementptr inbounds nuw %struct.ZSTD_optLdm_t, ptr %32, i32 0, i32 2
  %34 = load i32, ptr %33, align 4, !tbaa !56
  %35 = icmp uge i32 %31, %34
  br i1 %35, label %36, label %56

36:                                               ; preds = %30
  %37 = load i32, ptr %10, align 4, !tbaa !18
  %38 = load ptr, ptr %7, align 8, !tbaa !23
  %39 = getelementptr inbounds nuw %struct.ZSTD_optLdm_t, ptr %38, i32 0, i32 2
  %40 = load i32, ptr %39, align 4, !tbaa !56
  %41 = icmp ugt i32 %37, %40
  br i1 %41, label %42, label %52

42:                                               ; preds = %36
  call void @llvm.lifetime.start.p0(i64 4, ptr %13) #11
  %43 = load i32, ptr %10, align 4, !tbaa !18
  %44 = load ptr, ptr %7, align 8, !tbaa !23
  %45 = getelementptr inbounds nuw %struct.ZSTD_optLdm_t, ptr %44, i32 0, i32 2
  %46 = load i32, ptr %45, align 4, !tbaa !56
  %47 = sub i32 %43, %46
  store i32 %47, ptr %13, align 4, !tbaa !18
  %48 = load ptr, ptr %7, align 8, !tbaa !23
  %49 = getelementptr inbounds nuw %struct.ZSTD_optLdm_t, ptr %48, i32 0, i32 0
  %50 = load i32, ptr %13, align 4, !tbaa !18
  %51 = zext i32 %50 to i64
  call void @ZSTD_optLdm_skipRawSeqStoreBytes(ptr noundef %49, i64 noundef %51)
  call void @llvm.lifetime.end.p0(i64 4, ptr %13) #11
  br label %52

52:                                               ; preds = %42, %36
  %53 = load ptr, ptr %7, align 8, !tbaa !23
  %54 = load i32, ptr %10, align 4, !tbaa !18
  %55 = load i32, ptr %11, align 4, !tbaa !18
  call void @ZSTD_opt_getNextMatchAndUpdateSeqStore(ptr noundef %53, i32 noundef %54, i32 noundef %55)
  br label %56

56:                                               ; preds = %52, %30
  %57 = load ptr, ptr %8, align 8, !tbaa !23
  %58 = load ptr, ptr %9, align 8, !tbaa !24
  %59 = load ptr, ptr %7, align 8, !tbaa !23
  %60 = load i32, ptr %10, align 4, !tbaa !18
  %61 = load i32, ptr %12, align 4, !tbaa !18
  call void @ZSTD_optLdm_maybeAddMatch(ptr noundef %57, ptr noundef %58, ptr noundef %59, i32 noundef %60, i32 noundef %61)
  br label %62

62:                                               ; preds = %56, %29
  ret void
}