; Function Attrs: nofree norecurse nosync nounwind memory(read, argmem: readwrite, inaccessiblemem: none) uwtable
define internal fastcc void @ZSTD_optLdm_processMatchCandidate(ptr noundef nonnull captures(none) %0, ptr noundef captures(none) %1, ptr noundef nonnull captures(none) %2, i32 noundef %3, i32 noundef %4, i32 noundef range(i32 3, 5) %5) unnamed_addr #8 {
  %7 = getelementptr inbounds nuw i8, ptr %0, i64 24
  %8 = load i64, ptr %7, align 8, !tbaa !98
  %9 = icmp eq i64 %8, 0
  br i1 %9, label %ZSTD_optLdm_maybeAddMatch.exit, label %10

10:                                               ; preds = %6
  %11 = getelementptr inbounds nuw i8, ptr %0, i64 8
  %12 = load i64, ptr %11, align 8, !tbaa !99
  %.not = icmp ult i64 %12, %8
  br i1 %.not, label %13, label %ZSTD_optLdm_maybeAddMatch.exit

13:                                               ; preds = %10
  %14 = getelementptr inbounds nuw i8, ptr %0, i64 44
  %15 = load i32, ptr %14, align 4, !tbaa !33
  %.not20 = icmp ult i32 %3, %15
  br i1 %.not20, label %35, label %16

16:                                               ; preds = %13
  %17 = icmp ugt i32 %3, %15
  br i1 %17, label %18, label %ZSTD_optLdm_skipRawSeqStoreBytes.exit

18:                                               ; preds = %16
  %19 = sub nuw i32 %3, %15
  %20 = getelementptr inbounds nuw i8, ptr %0, i64 16
  %21 = load i64, ptr %20, align 8, !tbaa !102
  %22 = trunc i64 %21 to i32
  %23 = add i32 %19, %22
  %.not28.i = icmp eq i32 %23, 0
  br i1 %.not28.i, label %.critedge.i, label %.lr.ph.i

.lr.ph.i:                                         ; preds = %18, %31
  %24 = phi i64 [ %33, %31 ], [ %12, %18 ]
  %.01829.i = phi i32 [ %32, %31 ], [ %23, %18 ]
  %25 = icmp ult i64 %24, %8
  br i1 %25, label %26, label %.loopexit.i

26:                                               ; preds = %.lr.ph.i
  %27 = load ptr, ptr %0, align 8, !tbaa !116
  %28 = getelementptr inbounds nuw %struct.rawSeq, ptr %27, i64 %24
  %.sroa.3.0..sroa_idx.i = getelementptr inbounds nuw i8, ptr %28, i64 4
  %.sroa.3.0.copyload.i = load i32, ptr %.sroa.3.0..sroa_idx.i, align 4, !tbaa !23
  %.sroa.5.0..sroa_idx.i = getelementptr inbounds nuw i8, ptr %28, i64 8
  %.sroa.5.0.copyload.i = load i32, ptr %.sroa.5.0..sroa_idx.i, align 4, !tbaa !23
  %29 = add i32 %.sroa.5.0.copyload.i, %.sroa.3.0.copyload.i
  %.not21.i = icmp ult i32 %.01829.i, %29
  br i1 %.not21.i, label %.thread.i, label %31

.thread.i:                                        ; preds = %26
  %30 = zext i32 %.01829.i to i64
  store i64 %30, ptr %20, align 8, !tbaa !102
  br label %.loopexit.i

31:                                               ; preds = %26
  %32 = sub nuw i32 %.01829.i, %29
  %33 = add nuw i64 %24, 1
  store i64 %33, ptr %11, align 8, !tbaa !103
  %.not.i = icmp eq i32 %32, 0
  br i1 %.not.i, label %.critedge.i, label %.lr.ph.i

.loopexit.i:                                      ; preds = %.lr.ph.i, %.thread.i
  %34 = icmp eq i64 %24, %8
  br i1 %34, label %.critedge.i, label %ZSTD_optLdm_skipRawSeqStoreBytes.exit

.critedge.i:                                      ; preds = %31, %.loopexit.i, %18
  store i64 0, ptr %20, align 8, !tbaa !102
  br label %ZSTD_optLdm_skipRawSeqStoreBytes.exit

ZSTD_optLdm_skipRawSeqStoreBytes.exit:            ; preds = %.critedge.i, %.loopexit.i, %16
  tail call fastcc void @ZSTD_opt_getNextMatchAndUpdateSeqStore(ptr noundef %0, i32 noundef %3, i32 noundef %4)
  %.pre = load i32, ptr %14, align 4, !tbaa !33
  br label %35

35:                                               ; preds = %ZSTD_optLdm_skipRawSeqStoreBytes.exit, %13
  %36 = phi i32 [ %.pre, %ZSTD_optLdm_skipRawSeqStoreBytes.exit ], [ %15, %13 ]
  %37 = getelementptr inbounds nuw i8, ptr %0, i64 40
  %38 = load i32, ptr %37, align 8, !tbaa !32
  %39 = sub i32 %36, %3
  %40 = icmp ult i32 %3, %38
  %.not.i21 = icmp uge i32 %3, %36
  %41 = icmp ult i32 %39, %5
  %42 = or i1 %.not.i21, %41
  %or.cond25.i = select i1 %40, i1 true, i1 %42
  br i1 %or.cond25.i, label %ZSTD_optLdm_maybeAddMatch.exit, label %43

43:                                               ; preds = %35
  %44 = load i32, ptr %2, align 4, !tbaa !23
  %45 = icmp eq i32 %44, 0
  br i1 %45, label %53, label %46

46:                                               ; preds = %43
  %47 = add i32 %44, -1
  %48 = zext i32 %47 to i64
  %49 = getelementptr inbounds nuw %struct.ZSTD_match_t, ptr %1, i64 %48, i32 1
  %50 = load i32, ptr %49, align 4, !tbaa !42
  %51 = icmp ugt i32 %39, %50
  %52 = icmp ult i32 %44, 4096
  %or.cond26.i = and i1 %52, %51
  br i1 %or.cond26.i, label %53, label %ZSTD_optLdm_maybeAddMatch.exit

53:                                               ; preds = %46, %43
  %54 = getelementptr inbounds nuw i8, ptr %0, i64 48
  %55 = load i32, ptr %54, align 8, !tbaa !29
  %56 = add i32 %55, 3
  %57 = zext nneg i32 %44 to i64
  %58 = getelementptr inbounds nuw %struct.ZSTD_match_t, ptr %1, i64 %57, i32 1
  store i32 %39, ptr %58, align 4, !tbaa !42
  %59 = load i32, ptr %2, align 4, !tbaa !23
  %60 = zext i32 %59 to i64
  %61 = getelementptr inbounds nuw %struct.ZSTD_match_t, ptr %1, i64 %60
  store i32 %56, ptr %61, align 4, !tbaa !44
  %62 = load i32, ptr %2, align 4, !tbaa !23
  %63 = add i32 %62, 1
  store i32 %63, ptr %2, align 4, !tbaa !23
  br label %ZSTD_optLdm_maybeAddMatch.exit

ZSTD_optLdm_maybeAddMatch.exit:                   ; preds = %53, %46, %35, %6, %10
  ret void
}